(dp0
S'Flushing Meadows Corona Park'
p1
(cnumpy.core.multiarray
scalar
p2
(cnumpy
dtype
p3
(S'f8'
p4
I0
I1
tp5
Rp6
(I3
S'<'
p7
NNNI-1
I-1
I0
tp8
bS'V\x96\x8ds@`D@'
p9
tp10
Rp11
g2
(g6
S'|\x1b\xacI\x81uR\xc0'
p12
tp13
Rp14
tp15
sS'Recreation Center 54'
p16
(g2
(g6
S'4\x1d\xf0\xaf\xd4`D@'
p17
tp18
Rp19
g2
(g6
S'r\x13Z{\xc4}R\xc0'
p20
tp21
Rp22
tp23
sS'Metropolitan'
p24
(g2
(g6
S'\xbc\x85d\xb7\x85[D@'
p25
tp26
Rp27
g2
(g6
S'\x87\x19u\x08w}R\xc0'
p28
tp29
Rp30
tp31
sS'Asser Levy'
p32
(g2
(g6
S'_\x0f\x81~:^D@'
p33
tp34
Rp35
g2
(g6
S'\xc0D\x17/q~R\xc0'
p36
tp37
Rp38
tp39
sS'St. Johns'
p40
(g2
(g6
S'\xa3\xff\x8a\xa1AVD@'
p41
tp42
Rp43
g2
(g6
S'\xfey\xbfv\xd5{R\xc0'
p44
tp45
Rp46
tp47
sS'Tony Dapolito'
p48
(g2
(g6
S'\\NS\x15d]D@'
p49
tp50
Rp51
g2
(g6
S'\xbb\xac\xd3\x92X\x80R\xc0'
p52
tp53
Rp54
tp55
sS'Saint Marys'
p56
(g2
(g6
S'\xa6\x9f\xcb/\xdegD@'
p57
tp58
Rp59
g2
(g6
S'\x0c8\xf0\x0f\x80zR\xc0'
p60
tp61
Rp62
tp63
sS'Roy Wilkins'
p64
(g2
(g6
S'{\xb0\xd6\x9a\xf7WD@'
p65
tp66
Rp67
g2
(g6
S'\xdb+\x98\x9djqR\xc0'
p68
tp69
Rp70
tp71
sS'Gertrude Eredel'
p72
(g2
(g6
S'\x8e\xfa\xda\xe9\xbdbD@'
p73
tp74
Rp75
g2
(g6
S'\x0b.\x0cGF\x7fR\xc0'
p76
tp77
Rp78
tp79
sS'Hansborough'
p80
(g2
(g6
S'\x88|\xf2\x0b\nhD@'
p81
tp82
Rp83
g2
(g6
S'\t\xbc8\x96\x1c|R\xc0'
p84
tp85
Rp86
tp87
sS'Chelsea'
p88
(g2
(g6
S'#\xe3\x07\x9d\xc6_D@'
p89
tp90
Rp91
g2
(g6
S'\x9b\xd9\xf8]"\x80R\xc0'
p92
tp93
Rp94
tp95
sS'Brownsville'
p96
(g2
(g6
S'\xc7I\xabk\xfeSD@'
p97
tp98
Rp99
g2
(g6
S'/\xe7\xad\x15\xc8yR\xc0'
p100
tp101
Rp102
tp103
s.