(dp0
S'Flushing Meadows Corona Park'
p1
S'http://www.nycgovparks.org/facilities/recreationcenters/Q099/schedule#Pool'
p2
sS'Recreation Center 54'
p3
S'http://www.nycgovparks.org/facilities/recreationcenters/M130/schedule#Pool'
p4
sS'Metropolitan'
p5
S'http://www.nycgovparks.org/facilities/recreationcenters/B085/schedule#Pool'
p6
sS'Asser Levy'
p7
S'http://www.nycgovparks.org/facilities/recreationcenters/M164/schedule#Pool'
p8
sS'St. Johns'
p9
S'http://www.nycgovparks.org/facilities/recreationcenters/B245/schedule#Pool'
p10
sS'Tony Dapolito'
p11
S'http://www.nycgovparks.org/facilities/recreationcenters/M103/schedule#Pool'
p12
sS'Saint Marys'
p13
S'http://www.nycgovparks.org/facilities/recreationcenters/X045/schedule#Pool'
p14
sS'Roy Wilkins'
p15
S'http://www.nycgovparks.org/facilities/recreationcenters/Q448/schedule#Pool'
p16
sS'Gertrude Eredel'
p17
S'http://www.nycgovparks.org/facilities/recreationcenters/M063/schedule#Pool'
p18
sS'Hansborough'
p19
S'http://www.nycgovparks.org/facilities/recreationcenters/M131/schedule#Pool'
p20
sS'Chelsea'
p21
S'http://www.nycgovparks.org/facilities/recreationcenters/M260/schedule#Pool'
p22
sS'Brownsville'
p23
S'http://www.nycgovparks.org/facilities/recreationcenters/B270/schedule#Pool'
p24
s.